target datalayout = "e-m:e-p270:32:32-p271:32:32-p272:64:64-i64:64-i128:128-f80:128-n8:16:32:64-S128"
target triple = "x86_64-pc-linux-gnu"

%"class.folly::test::ThreadTimestamps" = type { %"class.std::vector" }
%"class.std::vector" = type { %"struct.std::_Vector_base" }
%"struct.std::_Vector_base" = type { %"struct.std::_Vector_base<folly::test::DSchedTimestamp, std::allocator<folly::test::DSchedTimestamp>>::_Vector_impl" }
%"struct.std::_Vector_base<folly::test::DSchedTimestamp, std::allocator<folly::test::DSchedTimestamp>>::_Vector_impl" = type { %"struct.std::_Vector_base<folly::test::DSchedTimestamp, std::allocator<folly::test::DSchedTimestamp>>::_Vector_impl_data" }
%"struct.std::_Vector_base<folly::test::DSchedTimestamp, std::allocator<folly::test::DSchedTimestamp>>::_Vector_impl_data" = type { ptr, ptr, ptr }
%"class.folly::test::DSchedTimestamp" = type { i64 }

; Function Attrs: inlinehint mustprogress nounwind uwtable
define linkonce_odr noundef nonnull align 8 dereferenceable(8) ptr @_ZSt3maxImERKT_S2_S2_(ptr noundef nonnull align 8 dereferenceable(8) %0, ptr noundef nonnull align 8 dereferenceable(8) %1) #5 comdat {
  %3 = alloca ptr, align 8
  %4 = alloca ptr, align 8
  %5 = alloca ptr, align 8
  store ptr %0, ptr %4, align 8, !tbaa !110
  store ptr %1, ptr %5, align 8, !tbaa !110
  %6 = load ptr, ptr %4, align 8, !tbaa !110
  %7 = load i64, ptr %6, align 8, !tbaa !83
  %8 = load ptr, ptr %5, align 8, !tbaa !110
  %9 = load i64, ptr %8, align 8, !tbaa !83
  %10 = icmp ult i64 %7, %9
  br i1 %10, label %11, label %13

11:                                               ; preds = %2
  %12 = load ptr, ptr %5, align 8, !tbaa !110
  store ptr %12, ptr %3, align 8
  br label %15

13:                                               ; preds = %2
  %14 = load ptr, ptr %4, align 8, !tbaa !110
  store ptr %14, ptr %3, align 8
  br label %15

15:                                               ; preds = %13, %11
  %16 = load ptr, ptr %3, align 8
  ret ptr %16
}

; Function Attrs: mustprogress nounwind uwtable
define linkonce_odr void @_ZN5folly4test15DSchedTimestamp4syncERKS1_(ptr noundef nonnull align 8 dereferenceable(8) %0, ptr noundef nonnull align 8 dereferenceable(8) %1) #1 comdat align 2 {
  %3 = alloca ptr, align 8
  %4 = alloca ptr, align 8
  store ptr %0, ptr %3, align 8, !tbaa !100
  store ptr %1, ptr %4, align 8, !tbaa !100
  %5 = load ptr, ptr %3, align 8
  %6 = getelementptr inbounds nuw %"class.folly::test::DSchedTimestamp", ptr %5, i32 0, i32 0
  %7 = load ptr, ptr %4, align 8, !tbaa !100
  %8 = getelementptr inbounds nuw %"class.folly::test::DSchedTimestamp", ptr %7, i32 0, i32 0
  %9 = call noundef nonnull align 8 dereferenceable(8) ptr @_ZSt3maxImERKT_S2_S2_(ptr noundef nonnull align 8 dereferenceable(8) %6, ptr noundef nonnull align 8 dereferenceable(8) %8)
  %10 = load i64, ptr %9, align 8, !tbaa !83
  %11 = getelementptr inbounds nuw %"class.folly::test::DSchedTimestamp", ptr %5, i32 0, i32 0
  store i64 %10, ptr %11, align 8, !tbaa !101
  ret void
}

; Function Attrs: mustprogress nounwind uwtable
define linkonce_odr noundef nonnull align 8 dereferenceable(8) ptr @_ZNKSt6vectorIN5folly4test15DSchedTimestampESaIS2_EEixEm(ptr noundef nonnull align 8 dereferenceable(24) %0, i64 noundef %1) #1 comdat align 2 {
  %3 = alloca ptr, align 8
  %4 = alloca i64, align 8
  store ptr %0, ptr %3, align 8, !tbaa !94
  store i64 %1, ptr %4, align 8, !tbaa !83
  %5 = load ptr, ptr %3, align 8
  %6 = getelementptr inbounds nuw %"struct.std::_Vector_base", ptr %5, i32 0, i32 0
  %7 = getelementptr inbounds nuw %"struct.std::_Vector_base<folly::test::DSchedTimestamp, std::allocator<folly::test::DSchedTimestamp>>::_Vector_impl_data", ptr %6, i32 0, i32 0
  %8 = load ptr, ptr %7, align 8, !tbaa !99
  %9 = load i64, ptr %4, align 8, !tbaa !83
  %10 = getelementptr inbounds nuw %"class.folly::test::DSchedTimestamp", ptr %8, i64 %9
  ret ptr %10
}

; Function Attrs: mustprogress nounwind uwtable
define linkonce_odr noundef nonnull align 8 dereferenceable(8) ptr @_ZNSt6vectorIN5folly4test15DSchedTimestampESaIS2_EEixEm(ptr noundef nonnull align 8 dereferenceable(24) %0, i64 noundef %1) #1 comdat align 2 {
  %3 = alloca ptr, align 8
  %4 = alloca i64, align 8
  store ptr %0, ptr %3, align 8, !tbaa !94
  store i64 %1, ptr %4, align 8, !tbaa !83
  %5 = load ptr, ptr %3, align 8
  %6 = getelementptr inbounds nuw %"struct.std::_Vector_base", ptr %5, i32 0, i32 0
  %7 = getelementptr inbounds nuw %"struct.std::_Vector_base<folly::test::DSchedTimestamp, std::allocator<folly::test::DSchedTimestamp>>::_Vector_impl_data", ptr %6, i32 0, i32 0
  %8 = load ptr, ptr %7, align 8, !tbaa !99
  %9 = load i64, ptr %4, align 8, !tbaa !83
  %10 = getelementptr inbounds nuw %"class.folly::test::DSchedTimestamp", ptr %8, i64 %9
  ret ptr %10
}

; Function Attrs: mustprogress nounwind uwtable
define linkonce_odr noundef i64 @_ZNKSt6vectorIN5folly4test15DSchedTimestampESaIS2_EE4sizeEv(ptr noundef nonnull align 8 dereferenceable(24) %0) #1 comdat align 2 {
  %2 = alloca ptr, align 8
  store ptr %0, ptr %2, align 8, !tbaa !94
  %3 = load ptr, ptr %2, align 8
  %4 = getelementptr inbounds nuw %"struct.std::_Vector_base", ptr %3, i32 0, i32 0
  %5 = getelementptr inbounds nuw %"struct.std::_Vector_base<folly::test::DSchedTimestamp, std::allocator<folly::test::DSchedTimestamp>>::_Vector_impl_data", ptr %4, i32 0, i32 1
  %6 = load ptr, ptr %5, align 8, !tbaa !96
  %7 = getelementptr inbounds nuw %"struct.std::_Vector_base", ptr %3, i32 0, i32 0
  %8 = getelementptr inbounds nuw %"struct.std::_Vector_base<folly::test::DSchedTimestamp, std::allocator<folly::test::DSchedTimestamp>>::_Vector_impl_data", ptr %7, i32 0, i32 0
  %9 = load ptr, ptr %8, align 8, !tbaa !99
  %10 = ptrtoint ptr %6 to i64
  %11 = ptrtoint ptr %9 to i64
  %12 = sub i64 %10, %11
  %13 = sdiv exact i64 %12, 8
  ret i64 %13
}

; Function Attrs: mustprogress uwtable
define void @_ZN5folly4test16ThreadTimestamps4syncERKS1_(ptr noundef nonnull align 8 dereferenceable(24) %0, ptr noundef nonnull align 8 dereferenceable(24) %1) #6 align 2 {
  %3 = alloca ptr, align 8
  %4 = alloca ptr, align 8
  %5 = alloca i64, align 8
  store ptr %0, ptr %3, align 8, !tbaa !91
  store ptr %1, ptr %4, align 8, !tbaa !91
  %6 = load ptr, ptr %3, align 8
  %7 = load ptr, ptr %4, align 8, !tbaa !91
  %8 = getelementptr inbounds nuw %"class.folly::test::ThreadTimestamps", ptr %7, i32 0, i32 0
  %9 = call noundef i64 @_ZNKSt6vectorIN5folly4test15DSchedTimestampESaIS2_EE4sizeEv(ptr noundef nonnull align 8 dereferenceable(24) %8) #2
  %10 = getelementptr inbounds nuw %"class.folly::test::ThreadTimestamps", ptr %6, i32 0, i32 0
  %11 = call noundef i64 @_ZNKSt6vectorIN5folly4test15DSchedTimestampESaIS2_EE4sizeEv(ptr noundef nonnull align 8 dereferenceable(24) %10) #2
  %12 = icmp ugt i64 %9, %11
  br i1 %12, label %13, label %18

13:                                               ; preds = %2
  %14 = getelementptr inbounds nuw %"class.folly::test::ThreadTimestamps", ptr %6, i32 0, i32 0
  %15 = load ptr, ptr %4, align 8, !tbaa !91
  %16 = getelementptr inbounds nuw %"class.folly::test::ThreadTimestamps", ptr %15, i32 0, i32 0
  %17 = call noundef i64 @_ZNKSt6vectorIN5folly4test15DSchedTimestampESaIS2_EE4sizeEv(ptr noundef nonnull align 8 dereferenceable(24) %16) #2
  call void @_ZNSt6vectorIN5folly4test15DSchedTimestampESaIS2_EE6resizeEm(ptr noundef nonnull align 8 dereferenceable(24) %14, i64 noundef %17)
  br label %18

18:                                               ; preds = %13, %2
  call void @llvm.lifetime.start.p0(i64 8, ptr %5) #2
  store i64 0, ptr %5, align 8, !tbaa !83
  br label %19

19:                                               ; preds = %34, %18
  %20 = load i64, ptr %5, align 8, !tbaa !83
  %21 = load ptr, ptr %4, align 8, !tbaa !91
  %22 = getelementptr inbounds nuw %"class.folly::test::ThreadTimestamps", ptr %21, i32 0, i32 0
  %23 = call noundef i64 @_ZNKSt6vectorIN5folly4test15DSchedTimestampESaIS2_EE4sizeEv(ptr noundef nonnull align 8 dereferenceable(24) %22) #2
  %24 = icmp ult i64 %20, %23
  br i1 %24, label %26, label %25

25:                                               ; preds = %19
  call void @llvm.lifetime.end.p0(i64 8, ptr %5) #2
  br label %37

26:                                               ; preds = %19
  %27 = getelementptr inbounds nuw %"class.folly::test::ThreadTimestamps", ptr %6, i32 0, i32 0
  %28 = load i64, ptr %5, align 8, !tbaa !83
  %29 = call noundef nonnull align 8 dereferenceable(8) ptr @_ZNSt6vectorIN5folly4test15DSchedTimestampESaIS2_EEixEm(ptr noundef nonnull align 8 dereferenceable(24) %27, i64 noundef %28) #2
  %30 = load ptr, ptr %4, align 8, !tbaa !91
  %31 = getelementptr inbounds nuw %"class.folly::test::ThreadTimestamps", ptr %30, i32 0, i32 0
  %32 = load i64, ptr %5, align 8, !tbaa !83
  %33 = call noundef nonnull align 8 dereferenceable(8) ptr @_ZNKSt6vectorIN5folly4test15DSchedTimestampESaIS2_EEixEm(ptr noundef nonnull align 8 dereferenceable(24) %31, i64 noundef %32) #2
  call void @_ZN5folly4test15DSchedTimestamp4syncERKS1_(ptr noundef nonnull align 8 dereferenceable(8) %29, ptr noundef nonnull align 8 dereferenceable(8) %33)
  br label %34

34:                                               ; preds = %26
  %35 = load i64, ptr %5, align 8, !tbaa !83
  %36 = add i64 %35, 1
  store i64 %36, ptr %5, align 8, !tbaa !83
  br label %19, !llvm.loop !93

37:                                               ; preds = %25
  ret void
}