; Function Attrs: mustprogress uwtable
define void @_ZN5folly4test16ThreadTimestamps4syncERKS1_(ptr noundef nonnull align 8 dereferenceable(24) %0, ptr noundef nonnull readonly align 8 captures(none) dereferenceable(24) %1) local_unnamed_addr #7 align 2 {
  %3 = getelementptr inbounds nuw i8, ptr %1, i64 8
  %4 = load ptr, ptr %3, align 8, !tbaa !27
  %5 = load ptr, ptr %1, align 8, !tbaa !30
  %6 = ptrtoint ptr %4 to i64
  %7 = ptrtoint ptr %5 to i64
  %8 = sub i64 %6, %7
  %9 = getelementptr inbounds nuw i8, ptr %0, i64 8
  %10 = load ptr, ptr %9, align 8, !tbaa !27
  %11 = load ptr, ptr %0, align 8, !tbaa !30
  %12 = ptrtoint ptr %10 to i64
  %13 = ptrtoint ptr %11 to i64
  %14 = sub i64 %12, %13
  %15 = icmp ugt i64 %8, %14
  br i1 %15, label %16, label %18

16:                                               ; preds = %2
  %17 = ashr exact i64 %8, 3
  tail call void @_ZNSt6vectorIN5folly4test15DSchedTimestampESaIS2_EE6resizeEm(ptr noundef nonnull align 8 dereferenceable(24) %0, i64 noundef %17)
  %.pre = load ptr, ptr %3, align 8, !tbaa !27
  %.pre9 = load ptr, ptr %1, align 8, !tbaa !30
  %.pre10 = ptrtoint ptr %.pre to i64
  %.pre11 = ptrtoint ptr %.pre9 to i64
  %.pre13 = sub i64 %.pre10, %.pre11
  br label %18

18:                                               ; preds = %16, %2
  %.pre-phi14 = phi i64 [ %.pre13, %16 ], [ %8, %2 ]
  %19 = phi ptr [ %.pre9, %16 ], [ %5, %2 ]
  %20 = phi ptr [ %.pre, %16 ], [ %4, %2 ]
  %.not = icmp eq ptr %20, %19
  br i1 %.not, label %._crit_edge, label %.lr.ph

.lr.ph:                                           ; preds = %18
  %21 = ashr exact i64 %.pre-phi14, 3
  %22 = load ptr, ptr %0, align 8, !tbaa !30
  %umax = tail call i64 @llvm.umax.i64(i64 %21, i64 1)
  br label %23

._crit_edge:                                      ; preds = %23, %18
  ret void

23:                                               ; preds = %.lr.ph, %23
  %.08 = phi i64 [ 0, %.lr.ph ], [ %29, %23 ]
  %24 = getelementptr inbounds nuw %"class.folly::test::DSchedTimestamp", ptr %22, i64 %.08
  %25 = getelementptr inbounds nuw %"class.folly::test::DSchedTimestamp", ptr %19, i64 %.08
  %26 = load i64, ptr %24, align 8, !tbaa !31
  %27 = load i64, ptr %25, align 8, !tbaa !31
  %28 = tail call i64 @llvm.umax.i64(i64 %26, i64 %27)
  store i64 %28, ptr %24, align 8, !tbaa !32
  %29 = add nuw i64 %.08, 1
  %exitcond.not = icmp eq i64 %29, %umax
  br i1 %exitcond.not, label %._crit_edge, label %23, !llvm.loop !34
}